(dp1
S'OriginalConfig'
p2
ccopy_reg
_reconstructor
p3
(cWMCore.Configuration
Configuration
p4
c__builtin__
object
p5
NtRp6
(dp7
S'Site'
p8
g3
(cWMCore.Configuration
ConfigSection
p9
g5
NtRp10
(dp11
S'_internal_skipChecks'
p12
I00
sS'_internal_documentation'
p13
S''
sS'_internal_settings'
p14
c__builtin__
set
p15
((lp16
S'storageSite'
p17
atRp18
sS'_internal_name'
p19
g8
sS'_internal_docstrings'
p20
(dp21
sS'_internal_children'
p22
g15
((ltRp23
sg17
S'T3_US_FNALLPC'
p24
sS'_internal_parent_ref'
p25
NsbsS'_internal_sections'
p26
(lp27
S'General'
p28
aS'JobType'
p29
aS'Data'
p30
ag8
aS'User'
p31
aS'Debug'
p32
asg28
g3
(g9
g5
NtRp33
(dp34
g12
I00
sg13
S''
sg14
g15
((lp35
S'workArea'
p36
aS'requestName'
p37
atRp38
sg19
g28
sg20
(dp39
sg22
g15
((ltRp40
sg37
S'ProduceRecoSample_v1'
p41
sg25
Nsg36
g41
sbsS'_internal_webapps'
p42
(lp43
sg31
g3
(g9
g5
NtRp44
(dp45
g12
I00
sg13
S''
sg14
g15
((ltRp46
sg19
g31
sg20
(dp47
sg22
g15
((ltRp48
sg25
NsbsS'_internal_components'
p49
(lp50
sg32
g3
(g9
g5
NtRp51
(dp52
g12
I00
sg13
S''
sg14
g15
((ltRp53
sg19
g32
sg20
(dp54
sg22
g15
((ltRp55
sg25
Nsbsg30
g3
(g9
g5
NtRp56
(dp57
S'inputDataset'
p58
S'/JPsiToMuMu_Pt20to100-pythia8-gun/RunIIAutumn18DRPremix-102X_upgrade2018_realistic_v15_ext1-v1/GEN-SIM-RAW'
p59
sS'outputDatasetTag'
p60
g41
sg12
I00
sS'unitsPerJob'
p61
I1
sg13
S''
sg14
g15
((lp62
g58
ag60
aS'totalUnits'
p63
ag61
aS'splitting'
p64
aS'useParent'
p65
aS'outLFNDirBase'
p66
atRp67
sg19
g30
sg64
S'FileBased'
p68
sg20
(dp69
sg65
I01
sg22
g15
((ltRp70
sg66
S'/store/user/bmahakud/ProduceRecoSample_v1'
p71
sg25
Nsg63
I1
sbsg29
g3
(g9
g5
NtRp72
(dp73
S'outputFiles'
p74
(lp75
S'RECO3.root'
p76
asS'numCores'
p77
I1
sg12
I00
sg13
S''
sg14
g15
((lp78
S'psetName'
p79
aS'pluginName'
p80
ag74
ag77
aS'maxMemoryMB'
p81
atRp82
sg19
g29
sg20
(dp83
sg80
S'Analysis'
p84
sg22
g15
((ltRp85
sg79
S'step3_RAW2DIGI_L1Reco_RECO_RECOSIM3.py'
p86
sg25
Nsg81
I2500
sbsbsS'voGroup'
p87
S''
sS'Server'
p88
S'cmsweb.cern.ch'
p89
sS'instance'
p90
S'prod'
p91
sS'RequestName'
p92
V190227_152409:bmahakud_crab_ProduceRecoSample_v1
p93
sS'voRole'
p94
S'NULL'
p95
sS'Port'
p96
S''
s.